ARM GAS  /tmp/ccMoBwwe.s 			page 1


   1              		.cpu cortex-m4
   2              		.eabi_attribute 27, 1
   3              		.eabi_attribute 28, 1
   4              		.eabi_attribute 20, 1
   5              		.eabi_attribute 21, 1
   6              		.eabi_attribute 23, 3
   7              		.eabi_attribute 24, 1
   8              		.eabi_attribute 25, 1
   9              		.eabi_attribute 26, 1
  10              		.eabi_attribute 30, 1
  11              		.eabi_attribute 34, 1
  12              		.eabi_attribute 18, 4
  13              		.file	"main.c"
  14              		.text
  15              		.section	.text.Error_Handler,"ax",%progbits
  16              		.align	1
  17              		.global	Error_Handler
  18              		.arch armv7e-m
  19              		.syntax unified
  20              		.thumb
  21              		.thumb_func
  22              		.fpu fpv4-sp-d16
  24              	Error_Handler:
  25              		@ Volatile: function does not return.
  26              		@ args = 0, pretend = 0, frame = 0
  27              		@ frame_needed = 0, uses_anonymous_args = 0
  28              		@ link register save eliminated.
  29              		.syntax unified
  30              	@ 142 "Drivers/CMSIS/Include/cmsis_gcc.h" 1
  31 0000 72B6     		cpsid i
  32              	@ 0 "" 2
  33              		.thumb
  34              		.syntax unified
  35              	.L2:
  36 0002 FEE7     		b	.L2
  38              		.section	.text.SystemClock_Config,"ax",%progbits
  39              		.align	1
  40              		.global	SystemClock_Config
  41              		.syntax unified
  42              		.thumb
  43              		.thumb_func
  44              		.fpu fpv4-sp-d16
  46              	SystemClock_Config:
  47              		@ args = 0, pretend = 0, frame = 80
  48              		@ frame_needed = 0, uses_anonymous_args = 0
  49 0000 00B5     		push	{lr}
  50 0002 95B0     		sub	sp, sp, #84
  51 0004 3022     		movs	r2, #48
  52 0006 0021     		movs	r1, #0
  53 0008 08A8     		add	r0, sp, #32
  54 000a FFF7FEFF 		bl	memset
  55 000e 0023     		movs	r3, #0
  56 0010 0393     		str	r3, [sp, #12]
  57 0012 0493     		str	r3, [sp, #16]
  58 0014 0593     		str	r3, [sp, #20]
  59 0016 0693     		str	r3, [sp, #24]
  60 0018 0793     		str	r3, [sp, #28]
ARM GAS  /tmp/ccMoBwwe.s 			page 2


  61 001a 0193     		str	r3, [sp, #4]
  62 001c 204A     		ldr	r2, .L9
  63 001e 116C     		ldr	r1, [r2, #64]
  64 0020 41F08051 		orr	r1, r1, #268435456
  65 0024 1164     		str	r1, [r2, #64]
  66 0026 126C     		ldr	r2, [r2, #64]
  67 0028 02F08052 		and	r2, r2, #268435456
  68 002c 0192     		str	r2, [sp, #4]
  69 002e 019A     		ldr	r2, [sp, #4]
  70 0030 0293     		str	r3, [sp, #8]
  71 0032 1C4B     		ldr	r3, .L9+4
  72 0034 1A68     		ldr	r2, [r3]
  73 0036 42F48042 		orr	r2, r2, #16384
  74 003a 1A60     		str	r2, [r3]
  75 003c 1B68     		ldr	r3, [r3]
  76 003e 03F48043 		and	r3, r3, #16384
  77 0042 0293     		str	r3, [sp, #8]
  78 0044 029B     		ldr	r3, [sp, #8]
  79 0046 0123     		movs	r3, #1
  80 0048 0893     		str	r3, [sp, #32]
  81 004a 4FF48033 		mov	r3, #65536
  82 004e 0993     		str	r3, [sp, #36]
  83 0050 0223     		movs	r3, #2
  84 0052 0E93     		str	r3, [sp, #56]
  85 0054 4FF48002 		mov	r2, #4194304
  86 0058 0F92     		str	r2, [sp, #60]
  87 005a 0422     		movs	r2, #4
  88 005c 1092     		str	r2, [sp, #64]
  89 005e A822     		movs	r2, #168
  90 0060 1192     		str	r2, [sp, #68]
  91 0062 1293     		str	r3, [sp, #72]
  92 0064 0723     		movs	r3, #7
  93 0066 1393     		str	r3, [sp, #76]
  94 0068 08A8     		add	r0, sp, #32
  95 006a FFF7FEFF 		bl	HAL_RCC_OscConfig
  96 006e 98B9     		cbnz	r0, .L7
  97 0070 0F23     		movs	r3, #15
  98 0072 0393     		str	r3, [sp, #12]
  99 0074 0223     		movs	r3, #2
 100 0076 0493     		str	r3, [sp, #16]
 101 0078 0023     		movs	r3, #0
 102 007a 0593     		str	r3, [sp, #20]
 103 007c 4FF4A053 		mov	r3, #5120
 104 0080 0693     		str	r3, [sp, #24]
 105 0082 4FF48053 		mov	r3, #4096
 106 0086 0793     		str	r3, [sp, #28]
 107 0088 0521     		movs	r1, #5
 108 008a 03A8     		add	r0, sp, #12
 109 008c FFF7FEFF 		bl	HAL_RCC_ClockConfig
 110 0090 20B9     		cbnz	r0, .L8
 111 0092 15B0     		add	sp, sp, #84
 112              		@ sp needed
 113 0094 5DF804FB 		ldr	pc, [sp], #4
 114              	.L7:
 115 0098 FFF7FEFF 		bl	Error_Handler
 116              	.L8:
 117 009c FFF7FEFF 		bl	Error_Handler
ARM GAS  /tmp/ccMoBwwe.s 			page 3


 118              	.L10:
 119              		.align	2
 120              	.L9:
 121 00a0 00380240 		.word	1073887232
 122 00a4 00700040 		.word	1073770496
 124              		.section	.text.main,"ax",%progbits
 125              		.align	1
 126              		.global	main
 127              		.syntax unified
 128              		.thumb
 129              		.thumb_func
 130              		.fpu fpv4-sp-d16
 132              	main:
 133              		@ Volatile: function does not return.
 134              		@ args = 0, pretend = 0, frame = 0
 135              		@ frame_needed = 0, uses_anonymous_args = 0
 136 0000 08B5     		push	{r3, lr}
 137 0002 FFF7FEFF 		bl	HAL_Init
 138 0006 FFF7FEFF 		bl	SystemClock_Config
 139 000a FFF7FEFF 		bl	MX_GPIO_Init
 140 000e FFF7FEFF 		bl	MX_USB_OTG_FS_USB_Init
 141 0012 FFF7FEFF 		bl	MX_TIM7_Init
 142              	.L12:
 143 0016 0421     		movs	r1, #4
 144 0018 0348     		ldr	r0, .L14
 145 001a FFF7FEFF 		bl	HAL_GPIO_TogglePin
 146 001e 4FF4FA70 		mov	r0, #500
 147 0022 FFF7FEFF 		bl	HAL_Delay
 148 0026 F6E7     		b	.L12
 149              	.L15:
 150              		.align	2
 151              	.L14:
 152 0028 000C0240 		.word	1073875968
 154              		.ident	"GCC: (GNU Arm Embedded Toolchain 10.3-2021.07) 10.3.1 20210621 (release)"
ARM GAS  /tmp/ccMoBwwe.s 			page 4

