ARM GAS  /tmp/cc2gGHeO.s 			page 1


   1              		.cpu cortex-m4
   2              		.eabi_attribute 27, 1
   3              		.eabi_attribute 28, 1
   4              		.eabi_attribute 20, 1
   5              		.eabi_attribute 21, 1
   6              		.eabi_attribute 23, 3
   7              		.eabi_attribute 24, 1
   8              		.eabi_attribute 25, 1
   9              		.eabi_attribute 26, 1
  10              		.eabi_attribute 30, 1
  11              		.eabi_attribute 34, 1
  12              		.eabi_attribute 18, 4
  13              		.file	"tim.c"
  14              		.text
  15              		.section	.text.MX_TIM7_Init,"ax",%progbits
  16              		.align	1
  17              		.global	MX_TIM7_Init
  18              		.arch armv7e-m
  19              		.syntax unified
  20              		.thumb
  21              		.thumb_func
  22              		.fpu fpv4-sp-d16
  24              	MX_TIM7_Init:
  25              		@ args = 0, pretend = 0, frame = 8
  26              		@ frame_needed = 0, uses_anonymous_args = 0
  27 0000 00B5     		push	{lr}
  28 0002 83B0     		sub	sp, sp, #12
  29 0004 0023     		movs	r3, #0
  30 0006 0093     		str	r3, [sp]
  31 0008 0193     		str	r3, [sp, #4]
  32 000a 0F48     		ldr	r0, .L7
  33 000c 0F4A     		ldr	r2, .L7+4
  34 000e 0260     		str	r2, [r0]
  35 0010 5422     		movs	r2, #84
  36 0012 4260     		str	r2, [r0, #4]
  37 0014 8360     		str	r3, [r0, #8]
  38 0016 4FF6FF72 		movw	r2, #65535
  39 001a C260     		str	r2, [r0, #12]
  40 001c 8361     		str	r3, [r0, #24]
  41 001e FFF7FEFF 		bl	HAL_TIM_Base_Init
  42 0022 50B9     		cbnz	r0, .L5
  43              	.L2:
  44 0024 0023     		movs	r3, #0
  45 0026 0093     		str	r3, [sp]
  46 0028 0193     		str	r3, [sp, #4]
  47 002a 6946     		mov	r1, sp
  48 002c 0648     		ldr	r0, .L7
  49 002e FFF7FEFF 		bl	HAL_TIMEx_MasterConfigSynchronization
  50 0032 28B9     		cbnz	r0, .L6
  51              	.L1:
  52 0034 03B0     		add	sp, sp, #12
  53              		@ sp needed
  54 0036 5DF804FB 		ldr	pc, [sp], #4
  55              	.L5:
  56 003a FFF7FEFF 		bl	Error_Handler
  57 003e F1E7     		b	.L2
  58              	.L6:
ARM GAS  /tmp/cc2gGHeO.s 			page 2


  59 0040 FFF7FEFF 		bl	Error_Handler
  60 0044 F6E7     		b	.L1
  61              	.L8:
  62 0046 00BF     		.align	2
  63              	.L7:
  64 0048 00000000 		.word	.LANCHOR0
  65 004c 00140040 		.word	1073746944
  67              		.section	.text.HAL_TIM_Base_MspInit,"ax",%progbits
  68              		.align	1
  69              		.global	HAL_TIM_Base_MspInit
  70              		.syntax unified
  71              		.thumb
  72              		.thumb_func
  73              		.fpu fpv4-sp-d16
  75              	HAL_TIM_Base_MspInit:
  76              		@ args = 0, pretend = 0, frame = 8
  77              		@ frame_needed = 0, uses_anonymous_args = 0
  78 0000 0268     		ldr	r2, [r0]
  79 0002 0E4B     		ldr	r3, .L16
  80 0004 9A42     		cmp	r2, r3
  81 0006 00D0     		beq	.L15
  82 0008 7047     		bx	lr
  83              	.L15:
  84 000a 00B5     		push	{lr}
  85 000c 83B0     		sub	sp, sp, #12
  86 000e 0022     		movs	r2, #0
  87 0010 0192     		str	r2, [sp, #4]
  88 0012 03F50933 		add	r3, r3, #140288
  89 0016 196C     		ldr	r1, [r3, #64]
  90 0018 41F02001 		orr	r1, r1, #32
  91 001c 1964     		str	r1, [r3, #64]
  92 001e 1B6C     		ldr	r3, [r3, #64]
  93 0020 03F02003 		and	r3, r3, #32
  94 0024 0193     		str	r3, [sp, #4]
  95 0026 019B     		ldr	r3, [sp, #4]
  96 0028 0421     		movs	r1, #4
  97 002a 3720     		movs	r0, #55
  98 002c FFF7FEFF 		bl	HAL_NVIC_SetPriority
  99 0030 3720     		movs	r0, #55
 100 0032 FFF7FEFF 		bl	HAL_NVIC_EnableIRQ
 101 0036 03B0     		add	sp, sp, #12
 102              		@ sp needed
 103 0038 5DF804FB 		ldr	pc, [sp], #4
 104              	.L17:
 105              		.align	2
 106              	.L16:
 107 003c 00140040 		.word	1073746944
 109              		.section	.text.HAL_TIM_Base_MspDeInit,"ax",%progbits
 110              		.align	1
 111              		.global	HAL_TIM_Base_MspDeInit
 112              		.syntax unified
 113              		.thumb
 114              		.thumb_func
 115              		.fpu fpv4-sp-d16
 117              	HAL_TIM_Base_MspDeInit:
 118              		@ args = 0, pretend = 0, frame = 0
 119              		@ frame_needed = 0, uses_anonymous_args = 0
ARM GAS  /tmp/cc2gGHeO.s 			page 3


 120 0000 08B5     		push	{r3, lr}
 121 0002 0268     		ldr	r2, [r0]
 122 0004 064B     		ldr	r3, .L22
 123 0006 9A42     		cmp	r2, r3
 124 0008 00D0     		beq	.L21
 125              	.L18:
 126 000a 08BD     		pop	{r3, pc}
 127              	.L21:
 128 000c 054A     		ldr	r2, .L22+4
 129 000e 136C     		ldr	r3, [r2, #64]
 130 0010 23F02003 		bic	r3, r3, #32
 131 0014 1364     		str	r3, [r2, #64]
 132 0016 3720     		movs	r0, #55
 133 0018 FFF7FEFF 		bl	HAL_NVIC_DisableIRQ
 134 001c F5E7     		b	.L18
 135              	.L23:
 136 001e 00BF     		.align	2
 137              	.L22:
 138 0020 00140040 		.word	1073746944
 139 0024 00380240 		.word	1073887232
 141              		.global	htim7
 142              		.section	.bss.htim7,"aw",%nobits
 143              		.align	2
 144              		.set	.LANCHOR0,. + 0
 147              	htim7:
 148 0000 00000000 		.space	72
 148      00000000 
 148      00000000 
 148      00000000 
 148      00000000 
 149              		.ident	"GCC: (GNU Arm Embedded Toolchain 10.3-2021.07) 10.3.1 20210621 (release)"
ARM GAS  /tmp/cc2gGHeO.s 			page 4

